target datalayout = "e-m:e-p270:32:32-p271:32:32-p272:64:64-i64:64-i128:128-f80:128-n8:16:32:64-S128"
target triple = "x86_64-pc-linux-gnu"

%struct.int2vector = type { i32, i32, i32, i32, i32, i32, [0 x i16] }
%struct.anon = type { i32, [0 x i8] }

; Function Attrs: nounwind uwtable
define dso_local ptr @buildint2vector(ptr noundef %0, i32 noundef %1) #0 {
  %3 = alloca ptr, align 8
  %4 = alloca i32, align 4
  %5 = alloca ptr, align 8
  store ptr %0, ptr %3, align 8
  store i32 %1, ptr %4, align 4
  call void @llvm.lifetime.start.p0(i64 8, ptr %5) #10
  %6 = load i32, ptr %4, align 4
  %7 = sext i32 %6 to i64
  %8 = mul i64 %7, 2
  %9 = add i64 24, %8
  %10 = call ptr @palloc0(i64 noundef %9)
  store ptr %10, ptr %5, align 8
  %11 = load i32, ptr %4, align 4
  %12 = icmp sgt i32 %11, 0
  br i1 %12, label %13, label %24

13:                                               ; preds = %2
  %14 = load ptr, ptr %3, align 8
  %15 = icmp ne ptr %14, null
  br i1 %15, label %16, label %24

16:                                               ; preds = %13
  %17 = load ptr, ptr %5, align 8
  %18 = getelementptr inbounds nuw %struct.int2vector, ptr %17, i32 0, i32 6
  %19 = getelementptr inbounds [0 x i16], ptr %18, i64 0, i64 0
  %20 = load ptr, ptr %3, align 8
  %21 = load i32, ptr %4, align 4
  %22 = sext i32 %21 to i64
  %23 = mul i64 %22, 2
  call void @llvm.memcpy.p0.p0.i64(ptr align 4 %19, ptr align 2 %20, i64 %23, i1 false)
  br label %24

24:                                               ; preds = %16, %13, %2
  %25 = load i32, ptr %4, align 4
  %26 = sext i32 %25 to i64
  %27 = mul i64 %26, 2
  %28 = add i64 24, %27
  %29 = trunc i64 %28 to i32
  %30 = shl i32 %29, 2
  %31 = load ptr, ptr %5, align 8
  %32 = getelementptr inbounds nuw %struct.anon, ptr %31, i32 0, i32 0
  store i32 %30, ptr %32, align 4
  %33 = load ptr, ptr %5, align 8
  %34 = getelementptr inbounds nuw %struct.int2vector, ptr %33, i32 0, i32 1
  store i32 1, ptr %34, align 4
  %35 = load ptr, ptr %5, align 8
  %36 = getelementptr inbounds nuw %struct.int2vector, ptr %35, i32 0, i32 2
  store i32 0, ptr %36, align 4
  %37 = load ptr, ptr %5, align 8
  %38 = getelementptr inbounds nuw %struct.int2vector, ptr %37, i32 0, i32 3
  store i32 21, ptr %38, align 4
  %39 = load i32, ptr %4, align 4
  %40 = load ptr, ptr %5, align 8
  %41 = getelementptr inbounds nuw %struct.int2vector, ptr %40, i32 0, i32 4
  store i32 %39, ptr %41, align 4
  %42 = load ptr, ptr %5, align 8
  %43 = getelementptr inbounds nuw %struct.int2vector, ptr %42, i32 0, i32 5
  store i32 0, ptr %43, align 4
  %44 = load ptr, ptr %5, align 8
  call void @llvm.lifetime.end.p0(i64 8, ptr %5) #10
  ret ptr %44
}