; Function Attrs: nounwind uwtable
define dso_local ptr @buildint2vector(ptr noundef readonly captures(address_is_null) %0, i32 noundef %1) local_unnamed_addr #0 {
  %3 = sext i32 %1 to i64
  %4 = shl nsw i64 %3, 1
  %5 = add nsw i64 %4, 24
  %6 = tail call ptr @palloc0(i64 noundef %5) #13
  %7 = icmp sgt i32 %1, 0
  %8 = icmp ne ptr %0, null
  %or.cond = and i1 %8, %7
  br i1 %or.cond, label %9, label %11

9:                                                ; preds = %2
  %10 = getelementptr inbounds nuw i8, ptr %6, i64 24
  tail call void @llvm.memcpy.p0.p0.i64(ptr nonnull align 4 %10, ptr nonnull align 2 %0, i64 %4, i1 false)
  br label %11

11:                                               ; preds = %9, %2
  %12 = trunc i64 %5 to i32
  %13 = shl i32 %12, 2
  store i32 %13, ptr %6, align 4
  %14 = getelementptr inbounds nuw i8, ptr %6, i64 4
  store i32 1, ptr %14, align 4
  %15 = getelementptr inbounds nuw i8, ptr %6, i64 8
  store i32 0, ptr %15, align 4
  %16 = getelementptr inbounds nuw i8, ptr %6, i64 12
  store i32 21, ptr %16, align 4
  %17 = getelementptr inbounds nuw i8, ptr %6, i64 16
  store i32 %1, ptr %17, align 4
  %18 = getelementptr inbounds nuw i8, ptr %6, i64 20
  store i32 0, ptr %18, align 4
  ret ptr %6
}